; Function Attrs: nounwind uwtable
define internal void @finish_output_pass(ptr noundef %0) #0 {
  %2 = getelementptr inbounds i8, ptr %0, i64 544
  %3 = load ptr, ptr %2, align 8
  %4 = getelementptr inbounds i8, ptr %0, i64 108
  %5 = load i32, ptr %4, align 4
  %.not = icmp eq i32 %5, 0
  br i1 %.not, label %11, label %6

6:                                                ; preds = %1
  %7 = getelementptr inbounds i8, ptr %0, i64 624
  %8 = load ptr, ptr %7, align 8
  %9 = getelementptr inbounds i8, ptr %8, i64 24
  %10 = load ptr, ptr %9, align 8
  tail call void %10(ptr noundef nonnull %0) #4
  br label %11

11:                                               ; preds = %6, %1
  %12 = getelementptr inbounds i8, ptr %3, i64 128
  %13 = load i32, ptr %12, align 8
  %14 = add nsw i32 %13, 1
  store i32 %14, ptr %12, align 8
  ret void
}